; Function Attrs: nounwind uwtable
define i32 @CVBandPrecInitB(ptr noundef %0, i32 noundef %1, i64 noundef %2, i64 noundef %3, i64 noundef %4) local_unnamed_addr #0 {
  %6 = icmp eq ptr %0, null
  br i1 %6, label %7, label %8

7:                                                ; preds = %5
  tail call void (ptr, i32, i32, ptr, ptr, ptr, ...) @cvProcessError(ptr noundef null, i32 noundef -1, i32 noundef 618, ptr noundef nonnull @__func__.CVBandPrecInitB, ptr noundef nonnull @.str, ptr noundef nonnull @.str.1) #8
  br label %28

8:                                                ; preds = %5
  %9 = getelementptr inbounds nuw i8, ptr %0, i64 2680
  %10 = load i32, ptr %9, align 8, !tbaa !64
  %11 = icmp eq i32 %10, 0
  br i1 %11, label %12, label %13

12:                                               ; preds = %8
  tail call void (ptr, i32, i32, ptr, ptr, ptr, ...) @cvProcessError(ptr noundef nonnull %0, i32 noundef -101, i32 noundef 627, ptr noundef nonnull @__func__.CVBandPrecInitB, ptr noundef nonnull @.str, ptr noundef nonnull @.str.7) #8
  br label %28

13:                                               ; preds = %8
  %14 = getelementptr inbounds nuw i8, ptr %0, i64 2672
  %15 = load ptr, ptr %14, align 8, !tbaa !65
  %16 = getelementptr inbounds nuw i8, ptr %15, i64 56
  %17 = load i32, ptr %16, align 8, !tbaa !66
  %.not = icmp slt i32 %1, %17
  br i1 %.not, label %19, label %18

18:                                               ; preds = %13
  tail call void (ptr, i32, i32, ptr, ptr, ptr, ...) @cvProcessError(ptr noundef nonnull %0, i32 noundef -3, i32 noundef 636, ptr noundef nonnull @__func__.CVBandPrecInitB, ptr noundef nonnull @.str, ptr noundef nonnull @.str.8) #8
  br label %28

19:                                               ; preds = %13
  %20 = getelementptr inbounds nuw i8, ptr %15, i64 48
  br label %.lr.ph

.lr.ph:                                           ; preds = %.lr.ph, %19
  %.020.sink.in = phi ptr [ %23, %.lr.ph ], [ %20, %19 ]
  %.020.sink = load ptr, ptr %.020.sink.in, align 8, !tbaa !71, !nonnull !72, !noundef !72
  %21 = load i32, ptr %.020.sink, align 8, !tbaa !73
  %22 = icmp eq i32 %1, %21
  %23 = getelementptr inbounds nuw i8, ptr %.020.sink, i64 120
  br i1 %22, label %._crit_edge, label %.lr.ph

._crit_edge:                                      ; preds = %.lr.ph
  %24 = getelementptr inbounds nuw i8, ptr %.020.sink, i64 16
  %25 = load ptr, ptr %24, align 8, !tbaa !76
  %26 = getelementptr inbounds nuw i8, ptr %.020.sink, i64 96
  store ptr null, ptr %26, align 8, !tbaa !77
  %27 = tail call i32 @CVBandPrecInit(ptr noundef %25, i64 noundef %2, i64 noundef %3, i64 noundef %4)
  br label %28

28:                                               ; preds = %._crit_edge, %18, %12, %7
  %.0 = phi i32 [ -1, %7 ], [ -101, %12 ], [ -3, %18 ], [ %27, %._crit_edge ]
  ret i32 %.0
}